target datalayout = "e-m:e-p270:32:32-p271:32:32-p272:64:64-i64:64-i128:128-f80:128-n8:16:32:64-S128"
target triple = "x86_64-unknown-linux-gnu"

%"class.icu_75::UnicodeString" = type { %"class.icu_75::Replaceable", %"union.icu_75::UnicodeString::StackBufferOrFields" }
%"class.icu_75::Replaceable" = type { %"class.icu_75::UObject" }
%"class.icu_75::UObject" = type { ptr }
%"union.icu_75::UnicodeString::StackBufferOrFields" = type { %struct.anon.0, [32 x i8] }
%struct.anon.0 = type { i16, i32, i32, ptr }
%class.TestDataModule = type { ptr, ptr, ptr, ptr }
%class.RBTestDataModule = type <{ %class.TestDataModule, ptr, ptr, ptr, i8, [7 x i8], ptr, i32, [4 x i8] }>
%"class.icu_75::ConstChar16Ptr" = type { ptr }

@_ZTV14TestDataModule = unnamed_addr constant { [7 x ptr] } { [7 x ptr] [ptr null, ptr @_ZTI14TestDataModule, ptr @_ZN14TestDataModuleD1Ev, ptr @_ZN14TestDataModuleD0Ev, ptr @__cxa_pure_virtual, ptr @__cxa_pure_virtual, ptr @__cxa_pure_virtual] }, align 8
@.str.8 = private unnamed_addr constant [9 x i8] c"TestData\00", align 1
@.str.9 = private unnamed_addr constant [5 x i8] c"Info\00", align 1

; Function Attrs: mustprogress nounwind uwtable
define void @_ZN14TestDataModuleD2Ev(ptr noundef nonnull align 8 dereferenceable(32) %this) unnamed_addr #0 align 2 {
entry:
  %this.addr = alloca ptr, align 8
  store ptr %this, ptr %this.addr, align 8
  %this1 = load ptr, ptr %this.addr, align 8
  store ptr getelementptr inbounds ({ [7 x ptr] }, ptr @_ZTV14TestDataModule, i32 0, i32 0, i32 2), ptr %this1, align 8
  %fInfo = getelementptr inbounds %class.TestDataModule, ptr %this1, i32 0, i32 2
  %0 = load ptr, ptr %fInfo, align 8
  %cmp = icmp ne ptr %0, null
  br i1 %cmp, label %if.then, label %if.end

if.then:                                          ; preds = %entry
  %fInfo2 = getelementptr inbounds %class.TestDataModule, ptr %this1, i32 0, i32 2
  %1 = load ptr, ptr %fInfo2, align 8
  %isnull = icmp eq ptr %1, null
  br i1 %isnull, label %delete.end, label %delete.notnull

delete.notnull:                                   ; preds = %if.then
  %vtable = load ptr, ptr %1, align 8
  %vfn = getelementptr inbounds ptr, ptr %vtable, i64 1
  %2 = load ptr, ptr %vfn, align 8
  call void %2(ptr noundef nonnull align 8 dereferenceable(8) %1) #11
  br label %delete.end

delete.end:                                       ; preds = %delete.notnull, %if.then
  br label %if.end

if.end:                                           ; preds = %delete.end, %entry
  ret void
}

; Function Attrs: mustprogress nounwind uwtable
define linkonce_odr void @_ZN6icu_7514ConstChar16PtrD2Ev(ptr noundef nonnull align 8 dereferenceable(8) %this) unnamed_addr #0 comdat align 2 {
entry:
  %this.addr = alloca ptr, align 8
  store ptr %this, ptr %this.addr, align 8
  %this1 = load ptr, ptr %this.addr, align 8
  %p_ = getelementptr inbounds %"class.icu_75::ConstChar16Ptr", ptr %this1, i32 0, i32 0
  %0 = load ptr, ptr %p_, align 8
  call void asm sideeffect "", "rm,~{memory},~{dirflag},~{fpsr},~{flags}"(ptr %0) #11, !srcloc !4
  ret void
}

; Function Attrs: mustprogress nounwind uwtable
define linkonce_odr void @_ZN6icu_7514ConstChar16PtrC2EPKDs(ptr noundef nonnull align 8 dereferenceable(8) %this, ptr noundef %p) unnamed_addr #0 comdat align 2 {
entry:
  %this.addr = alloca ptr, align 8
  %p.addr = alloca ptr, align 8
  store ptr %this, ptr %this.addr, align 8
  store ptr %p, ptr %p.addr, align 8
  %this1 = load ptr, ptr %this.addr, align 8
  %p_ = getelementptr inbounds %"class.icu_75::ConstChar16Ptr", ptr %this1, i32 0, i32 0
  %0 = load ptr, ptr %p.addr, align 8
  store ptr %0, ptr %p_, align 8
  ret void
}

; Function Attrs: mustprogress nounwind uwtable
define void @_ZN14TestDataModuleC2EPKcR7TestLogR10UErrorCode(ptr noundef nonnull align 8 dereferenceable(32) %this, ptr noundef %name, ptr noundef nonnull align 8 dereferenceable(8) %log, ptr noundef nonnull align 4 dereferenceable(4) %0) unnamed_addr #0 align 2 {
entry:
  %this.addr = alloca ptr, align 8
  %name.addr = alloca ptr, align 8
  %log.addr = alloca ptr, align 8
  %.addr = alloca ptr, align 8
  store ptr %this, ptr %this.addr, align 8
  store ptr %name, ptr %name.addr, align 8
  store ptr %log, ptr %log.addr, align 8
  store ptr %0, ptr %.addr, align 8
  %this1 = load ptr, ptr %this.addr, align 8
  store ptr getelementptr inbounds ({ [7 x ptr] }, ptr @_ZTV14TestDataModule, i32 0, i32 0, i32 2), ptr %this1, align 8
  %testName = getelementptr inbounds %class.TestDataModule, ptr %this1, i32 0, i32 1
  %1 = load ptr, ptr %name.addr, align 8
  store ptr %1, ptr %testName, align 8
  %fInfo = getelementptr inbounds %class.TestDataModule, ptr %this1, i32 0, i32 2
  store ptr null, ptr %fInfo, align 8
  %fLog = getelementptr inbounds %class.TestDataModule, ptr %this1, i32 0, i32 3
  %2 = load ptr, ptr %log.addr, align 8
  store ptr %2, ptr %fLog, align 8
  ret void
}

; Function Attrs: mustprogress uwtable
define void @_ZN16RBTestDataModuleC2EPKcR7TestLogR10UErrorCode(ptr noundef nonnull align 8 dereferenceable(76) %this, ptr noundef %name, ptr noundef nonnull align 8 dereferenceable(8) %log, ptr noundef nonnull align 4 dereferenceable(4) %status) unnamed_addr #1 align 2 personality ptr @__gxx_personality_v0 {
entry:
  %this.addr = alloca ptr, align 8
  %name.addr = alloca ptr, align 8
  %log.addr = alloca ptr, align 8
  %status.addr = alloca ptr, align 8
  %exn.slot = alloca ptr, align 8
  %ehselector.slot = alloca i32, align 4
  %ref.tmp = alloca %"class.icu_75::UnicodeString", align 8
  %agg.tmp = alloca %"class.icu_75::ConstChar16Ptr", align 8
  store ptr %this, ptr %this.addr, align 8
  store ptr %name, ptr %name.addr, align 8
  store ptr %log, ptr %log.addr, align 8
  store ptr %status, ptr %status.addr, align 8
  %this1 = load ptr, ptr %this.addr, align 8
  %0 = load ptr, ptr %name.addr, align 8
  %1 = load ptr, ptr %log.addr, align 8
  %2 = load ptr, ptr %status.addr, align 8
  call void @_ZN14TestDataModuleC2EPKcR7TestLogR10UErrorCode(ptr noundef nonnull align 8 dereferenceable(32) %this1, ptr noundef %0, ptr noundef nonnull align 8 dereferenceable(8) %1, ptr noundef nonnull align 4 dereferenceable(4) %2)
  store ptr getelementptr inbounds ({ [7 x ptr] }, ptr @_ZTV16RBTestDataModule, i32 0, i32 0, i32 2), ptr %this1, align 8
  %fModuleBundle = getelementptr inbounds %class.RBTestDataModule, ptr %this1, i32 0, i32 1
  store ptr null, ptr %fModuleBundle, align 8
  %fTestData = getelementptr inbounds %class.RBTestDataModule, ptr %this1, i32 0, i32 2
  store ptr null, ptr %fTestData, align 8
  %fInfoRB = getelementptr inbounds %class.RBTestDataModule, ptr %this1, i32 0, i32 3
  store ptr null, ptr %fInfoRB, align 8
  %tdpath = getelementptr inbounds %class.RBTestDataModule, ptr %this1, i32 0, i32 6
  store ptr null, ptr %tdpath, align 8
  %fNumberOfTests = getelementptr inbounds %class.RBTestDataModule, ptr %this1, i32 0, i32 7
  store i32 0, ptr %fNumberOfTests, align 8
  %fDataTestValid = getelementptr inbounds %class.RBTestDataModule, ptr %this1, i32 0, i32 4
  store i8 1, ptr %fDataTestValid, align 8
  %3 = load ptr, ptr %name.addr, align 8
  %4 = load ptr, ptr %status.addr, align 8
  %call = invoke noundef ptr @_ZN16RBTestDataModule13getTestBundleEPKcR10UErrorCode(ptr noundef nonnull align 8 dereferenceable(76) %this1, ptr noundef %3, ptr noundef nonnull align 4 dereferenceable(4) %4)
          to label %invoke.cont unwind label %lpad

invoke.cont:                                      ; preds = %entry
  %fModuleBundle2 = getelementptr inbounds %class.RBTestDataModule, ptr %this1, i32 0, i32 1
  store ptr %call, ptr %fModuleBundle2, align 8
  %fDataTestValid3 = getelementptr inbounds %class.RBTestDataModule, ptr %this1, i32 0, i32 4
  %5 = load i8, ptr %fDataTestValid3, align 8
  %tobool = icmp ne i8 %5, 0
  br i1 %tobool, label %if.then, label %if.end29

if.then:                                          ; preds = %invoke.cont
  %fModuleBundle4 = getelementptr inbounds %class.RBTestDataModule, ptr %this1, i32 0, i32 1
  %6 = load ptr, ptr %fModuleBundle4, align 8
  %7 = load ptr, ptr %status.addr, align 8
  %call6 = invoke ptr @ures_getByKey_75(ptr noundef %6, ptr noundef @.str.8, ptr noundef null, ptr noundef %7)
          to label %invoke.cont5 unwind label %lpad

invoke.cont5:                                     ; preds = %if.then
  %fTestData7 = getelementptr inbounds %class.RBTestDataModule, ptr %this1, i32 0, i32 2
  store ptr %call6, ptr %fTestData7, align 8
  %fTestData8 = getelementptr inbounds %class.RBTestDataModule, ptr %this1, i32 0, i32 2
  %8 = load ptr, ptr %fTestData8, align 8
  %call10 = invoke i32 @ures_getSize_75(ptr noundef %8)
          to label %invoke.cont9 unwind label %lpad

invoke.cont9:                                     ; preds = %invoke.cont5
  %fNumberOfTests11 = getelementptr inbounds %class.RBTestDataModule, ptr %this1, i32 0, i32 7
  store i32 %call10, ptr %fNumberOfTests11, align 8
  %fModuleBundle12 = getelementptr inbounds %class.RBTestDataModule, ptr %this1, i32 0, i32 1
  %9 = load ptr, ptr %fModuleBundle12, align 8
  %10 = load ptr, ptr %status.addr, align 8
  %call14 = invoke ptr @ures_getByKey_75(ptr noundef %9, ptr noundef @.str.9, ptr noundef null, ptr noundef %10)
          to label %invoke.cont13 unwind label %lpad

invoke.cont13:                                    ; preds = %invoke.cont9
  %fInfoRB15 = getelementptr inbounds %class.RBTestDataModule, ptr %this1, i32 0, i32 3
  store ptr %call14, ptr %fInfoRB15, align 8
  %11 = load ptr, ptr %status.addr, align 8
  %12 = load i32, ptr %11, align 4
  %cmp = icmp ne i32 %12, 0
  br i1 %cmp, label %if.then16, label %if.else

if.then16:                                        ; preds = %invoke.cont13
  %13 = load ptr, ptr %log.addr, align 8
  invoke void @_ZN6icu_7514ConstChar16PtrC2EPKDs(ptr noundef nonnull align 8 dereferenceable(8) %agg.tmp, ptr noundef @.str.10)
          to label %invoke.cont17 unwind label %lpad

invoke.cont17:                                    ; preds = %if.then16
  invoke void @_ZN6icu_7513UnicodeStringC1EaNS_14ConstChar16PtrEi(ptr noundef nonnull align 8 dereferenceable(64) %ref.tmp, i8 noundef signext 1, ptr noundef %agg.tmp, i32 noundef -1)
          to label %invoke.cont19 unwind label %lpad18

invoke.cont19:                                    ; preds = %invoke.cont17
  %vtable = load ptr, ptr %13, align 8
  %vfn = getelementptr inbounds ptr, ptr %vtable, i64 2
  %14 = load ptr, ptr %vfn, align 8
  invoke void %14(ptr noundef nonnull align 8 dereferenceable(8) %13, ptr noundef nonnull align 8 dereferenceable(64) %ref.tmp)
          to label %invoke.cont21 unwind label %lpad20

invoke.cont21:                                    ; preds = %invoke.cont19
  call void @_ZN6icu_7513UnicodeStringD1Ev(ptr noundef nonnull align 8 dereferenceable(64) %ref.tmp) #11
  call void @_ZN6icu_7514ConstChar16PtrD2Ev(ptr noundef nonnull align 8 dereferenceable(8) %agg.tmp) #11
  %fDataTestValid22 = getelementptr inbounds %class.RBTestDataModule, ptr %this1, i32 0, i32 4
  store i8 0, ptr %fDataTestValid22, align 8
  br label %if.end

lpad:                                             ; preds = %if.else, %if.then16, %invoke.cont9, %invoke.cont5, %if.then, %entry
  %15 = landingpad { ptr, i32 }
          cleanup
  %16 = extractvalue { ptr, i32 } %15, 0
  store ptr %16, ptr %exn.slot, align 8
  %17 = extractvalue { ptr, i32 } %15, 1
  store i32 %17, ptr %ehselector.slot, align 4
  br label %ehcleanup30

lpad18:                                           ; preds = %invoke.cont17
  %18 = landingpad { ptr, i32 }
          cleanup
  %19 = extractvalue { ptr, i32 } %18, 0
  store ptr %19, ptr %exn.slot, align 8
  %20 = extractvalue { ptr, i32 } %18, 1
  store i32 %20, ptr %ehselector.slot, align 4
  br label %ehcleanup

lpad20:                                           ; preds = %invoke.cont19
  %21 = landingpad { ptr, i32 }
          cleanup
  %22 = extractvalue { ptr, i32 } %21, 0
  store ptr %22, ptr %exn.slot, align 8
  %23 = extractvalue { ptr, i32 } %21, 1
  store i32 %23, ptr %ehselector.slot, align 4
  call void @_ZN6icu_7513UnicodeStringD1Ev(ptr noundef nonnull align 8 dereferenceable(64) %ref.tmp) #11
  br label %ehcleanup

ehcleanup:                                        ; preds = %lpad20, %lpad18
  call void @_ZN6icu_7514ConstChar16PtrD2Ev(ptr noundef nonnull align 8 dereferenceable(8) %agg.tmp) #11
  br label %ehcleanup30

if.else:                                          ; preds = %invoke.cont13
  %call24 = invoke noalias noundef nonnull ptr @_Znwm(i64 noundef 16) #14
          to label %invoke.cont23 unwind label %lpad

invoke.cont23:                                    ; preds = %if.else
  %fInfoRB25 = getelementptr inbounds %class.RBTestDataModule, ptr %this1, i32 0, i32 3
  %24 = load ptr, ptr %fInfoRB25, align 8
  %25 = load ptr, ptr %status.addr, align 8
  invoke void @_ZN9RBDataMapC1EP15UResourceBundleR10UErrorCode(ptr noundef nonnull align 8 dereferenceable(16) %call24, ptr noundef %24, ptr noundef nonnull align 4 dereferenceable(4) %25)
          to label %invoke.cont27 unwind label %lpad26

invoke.cont27:                                    ; preds = %invoke.cont23
  %fInfo = getelementptr inbounds %class.TestDataModule, ptr %this1, i32 0, i32 2
  store ptr %call24, ptr %fInfo, align 8
  br label %if.end

lpad26:                                           ; preds = %invoke.cont23
  %26 = landingpad { ptr, i32 }
          cleanup
  %27 = extractvalue { ptr, i32 } %26, 0
  store ptr %27, ptr %exn.slot, align 8
  %28 = extractvalue { ptr, i32 } %26, 1
  store i32 %28, ptr %ehselector.slot, align 4
  call void @_ZdlPv(ptr noundef %call24) #15
  br label %ehcleanup30

if.end:                                           ; preds = %invoke.cont27, %invoke.cont21
  br label %if.end29

if.end29:                                         ; preds = %if.end, %invoke.cont
  ret void

ehcleanup30:                                      ; preds = %lpad26, %ehcleanup, %lpad
  call void @_ZN14TestDataModuleD2Ev(ptr noundef nonnull align 8 dereferenceable(32) %this1) #11
  br label %eh.resume

eh.resume:                                        ; preds = %ehcleanup30
  %exn = load ptr, ptr %exn.slot, align 8
  %sel = load i32, ptr %ehselector.slot, align 4
  %lpad.val = insertvalue { ptr, i32 } poison, ptr %exn, 0
  %lpad.val31 = insertvalue { ptr, i32 } %lpad.val, i32 %sel, 1
  resume { ptr, i32 } %lpad.val31
}