; Function Attrs: mustprogress uwtable
define void @_ZN16RBTestDataModuleC2EPKcR7TestLogR10UErrorCode(ptr nocapture noundef nonnull align 8 dereferenceable(76) %this, ptr noundef %name, ptr noundef nonnull align 8 dereferenceable(8) %log, ptr noundef nonnull align 4 dereferenceable(4) %status) unnamed_addr #1 align 2 personality ptr @__gxx_personality_v0 {
entry:
  %ref.tmp = alloca %"class.icu_75::UnicodeString", align 8
  %agg.tmp = alloca %"class.icu_75::ConstChar16Ptr", align 8
  %testName.i = getelementptr inbounds i8, ptr %this, i64 8
  store ptr %name, ptr %testName.i, align 8
  %fInfo.i = getelementptr inbounds i8, ptr %this, i64 16
  store ptr null, ptr %fInfo.i, align 8
  %fLog.i = getelementptr inbounds i8, ptr %this, i64 24
  store ptr %log, ptr %fLog.i, align 8
  store ptr getelementptr inbounds ({ [7 x ptr] }, ptr @_ZTV16RBTestDataModule, i64 0, i32 0, i64 2), ptr %this, align 8
  %fModuleBundle = getelementptr inbounds i8, ptr %this, i64 32
  %fTestData = getelementptr inbounds i8, ptr %this, i64 40
  %fInfoRB = getelementptr inbounds i8, ptr %this, i64 48
  %tdpath = getelementptr inbounds i8, ptr %this, i64 64
  store ptr null, ptr %tdpath, align 8
  %fNumberOfTests = getelementptr inbounds i8, ptr %this, i64 72
  store i32 0, ptr %fNumberOfTests, align 8
  %fDataTestValid = getelementptr inbounds i8, ptr %this, i64 56
  tail call void @llvm.memset.p0.i64(ptr noundef nonnull align 8 dereferenceable(24) %fModuleBundle, i8 0, i64 24, i1 false)
  store i8 1, ptr %fDataTestValid, align 8
  %call = invoke noundef ptr @_ZN16RBTestDataModule13getTestBundleEPKcR10UErrorCode(ptr noundef nonnull align 8 dereferenceable(76) %this, ptr noundef %name, ptr noundef nonnull align 4 dereferenceable(4) %status)
          to label %invoke.cont unwind label %lpad

invoke.cont:                                      ; preds = %entry
  store ptr %call, ptr %fModuleBundle, align 8
  %0 = load i8, ptr %fDataTestValid, align 8
  %tobool.not = icmp eq i8 %0, 0
  br i1 %tobool.not, label %if.end29, label %if.then

if.then:                                          ; preds = %invoke.cont
  %call6 = invoke ptr @ures_getByKey_75(ptr noundef %call, ptr noundef nonnull @.str.8, ptr noundef null, ptr noundef nonnull %status)
          to label %invoke.cont5 unwind label %lpad

invoke.cont5:                                     ; preds = %if.then
  store ptr %call6, ptr %fTestData, align 8
  %call10 = invoke i32 @ures_getSize_75(ptr noundef %call6)
          to label %invoke.cont9 unwind label %lpad

invoke.cont9:                                     ; preds = %invoke.cont5
  store i32 %call10, ptr %fNumberOfTests, align 8
  %1 = load ptr, ptr %fModuleBundle, align 8
  %call14 = invoke ptr @ures_getByKey_75(ptr noundef %1, ptr noundef nonnull @.str.9, ptr noundef null, ptr noundef nonnull %status)
          to label %invoke.cont13 unwind label %lpad

invoke.cont13:                                    ; preds = %invoke.cont9
  store ptr %call14, ptr %fInfoRB, align 8
  %2 = load i32, ptr %status, align 4
  %cmp.not = icmp eq i32 %2, 0
  br i1 %cmp.not, label %if.else, label %if.then16

if.then16:                                        ; preds = %invoke.cont13
  store ptr @.str.10, ptr %agg.tmp, align 8
  invoke void @_ZN6icu_7513UnicodeStringC1EaNS_14ConstChar16PtrEi(ptr noundef nonnull align 8 dereferenceable(64) %ref.tmp, i8 noundef signext 1, ptr noundef nonnull %agg.tmp, i32 noundef -1)
          to label %invoke.cont19 unwind label %lpad18

invoke.cont19:                                    ; preds = %if.then16
  %vtable = load ptr, ptr %log, align 8
  %vfn = getelementptr inbounds i8, ptr %vtable, i64 16
  %3 = load ptr, ptr %vfn, align 8
  invoke void %3(ptr noundef nonnull align 8 dereferenceable(8) %log, ptr noundef nonnull align 8 dereferenceable(64) %ref.tmp)
          to label %invoke.cont21 unwind label %lpad20

invoke.cont21:                                    ; preds = %invoke.cont19
  call void @_ZN6icu_7513UnicodeStringD1Ev(ptr noundef nonnull align 8 dereferenceable(64) %ref.tmp) #20
  %4 = load ptr, ptr %agg.tmp, align 8
  call void asm sideeffect "", "rm,~{memory},~{dirflag},~{fpsr},~{flags}"(ptr %4) #20, !srcloc !4
  store i8 0, ptr %fDataTestValid, align 8
  br label %if.end29

lpad:                                             ; preds = %if.else, %invoke.cont9, %invoke.cont5, %if.then, %entry
  %5 = landingpad { ptr, i32 }
          cleanup
  br label %ehcleanup30

lpad18:                                           ; preds = %if.then16
  %6 = landingpad { ptr, i32 }
          cleanup
  br label %ehcleanup

lpad20:                                           ; preds = %invoke.cont19
  %7 = landingpad { ptr, i32 }
          cleanup
  call void @_ZN6icu_7513UnicodeStringD1Ev(ptr noundef nonnull align 8 dereferenceable(64) %ref.tmp) #20
  br label %ehcleanup

ehcleanup:                                        ; preds = %lpad20, %lpad18
  %.pn = phi { ptr, i32 } [ %7, %lpad20 ], [ %6, %lpad18 ]
  %8 = load ptr, ptr %agg.tmp, align 8
  call void asm sideeffect "", "rm,~{memory},~{dirflag},~{fpsr},~{flags}"(ptr %8) #20, !srcloc !4
  br label %ehcleanup30

if.else:                                          ; preds = %invoke.cont13
  %call24 = invoke noalias noundef nonnull dereferenceable(16) ptr @_Znwm(i64 noundef 16) #23
          to label %invoke.cont23 unwind label %lpad

invoke.cont23:                                    ; preds = %if.else
  invoke void @_ZN9RBDataMapC1EP15UResourceBundleR10UErrorCode(ptr noundef nonnull align 8 dereferenceable(16) %call24, ptr noundef %call14, ptr noundef nonnull align 4 dereferenceable(4) %status)
          to label %invoke.cont27 unwind label %lpad26

invoke.cont27:                                    ; preds = %invoke.cont23
  store ptr %call24, ptr %fInfo.i, align 8
  br label %if.end29

lpad26:                                           ; preds = %invoke.cont23
  %9 = landingpad { ptr, i32 }
          cleanup
  tail call void @_ZdlPv(ptr noundef nonnull %call24) #24
  br label %ehcleanup30

if.end29:                                         ; preds = %invoke.cont21, %invoke.cont27, %invoke.cont
  ret void

ehcleanup30:                                      ; preds = %lpad26, %ehcleanup, %lpad
  %.pn.pn = phi { ptr, i32 } [ %.pn, %ehcleanup ], [ %9, %lpad26 ], [ %5, %lpad ]
  store ptr getelementptr inbounds ({ [7 x ptr] }, ptr @_ZTV14TestDataModule, i64 0, i32 0, i64 2), ptr %this, align 8
  %10 = load ptr, ptr %fInfo.i, align 8
  %cmp.not.i = icmp eq ptr %10, null
  br i1 %cmp.not.i, label %_ZN14TestDataModuleD2Ev.exit, label %delete.notnull.i

delete.notnull.i:                                 ; preds = %ehcleanup30
  %vtable.i = load ptr, ptr %10, align 8
  %vfn.i = getelementptr inbounds i8, ptr %vtable.i, i64 8
  %11 = load ptr, ptr %vfn.i, align 8
  call void %11(ptr noundef nonnull align 8 dereferenceable(8) %10) #20
  br label %_ZN14TestDataModuleD2Ev.exit

_ZN14TestDataModuleD2Ev.exit:                     ; preds = %ehcleanup30, %delete.notnull.i
  resume { ptr, i32 } %.pn.pn
}